target datalayout = "e-m:e-p270:32:32-p271:32:32-p272:64:64-i64:64-i128:128-f80:128-n8:16:32:64-S128"
target triple = "x86_64-pc-linux-gnu"

@ett_mbim_pair_list = internal global i32 0, align 4
@.str.2579 = private unnamed_addr constant [13 x i8] c"Unnamed IE's\00", align 1

; Function Attrs: nounwind uwtable
define internal void @mbim_dissect_tlv_ie_list(ptr noundef %0, ptr noundef %1, ptr noundef %2, i32 noundef %3, i32 noundef %4, i32 noundef %5) #0 {
  %7 = alloca ptr, align 8
  %8 = alloca ptr, align 8
  %9 = alloca ptr, align 8
  %10 = alloca i32, align 4
  %11 = alloca i32, align 4
  %12 = alloca i32, align 4
  %13 = alloca ptr, align 8
  store ptr %0, ptr %7, align 8
  store ptr %1, ptr %8, align 8
  store ptr %2, ptr %9, align 8
  store i32 %3, ptr %10, align 4
  store i32 %4, ptr %11, align 4
  store i32 %5, ptr %12, align 4
  br label %14

14:                                               ; preds = %20, %6
  %15 = load i32, ptr %10, align 4
  %16 = load i32, ptr %11, align 4
  %17 = sub i32 %15, %16
  %18 = load i32, ptr %12, align 4
  %19 = icmp slt i32 %17, %18
  br i1 %19, label %20, label %29

20:                                               ; preds = %14
  %21 = load ptr, ptr %9, align 8
  %22 = load ptr, ptr %7, align 8
  %23 = load i32, ptr %10, align 4
  %24 = load i32, ptr @ett_mbim_pair_list, align 4
  %25 = call ptr (ptr, ptr, i32, i32, i32, ptr, ptr, ...) @proto_tree_add_subtree_format(ptr noundef %21, ptr noundef %22, i32 noundef %23, i32 noundef 0, i32 noundef %24, ptr noundef null, ptr noundef @.str.2579)
  store ptr %25, ptr %13, align 8
  %26 = load ptr, ptr %7, align 8
  %27 = load ptr, ptr %8, align 8
  %28 = load ptr, ptr %13, align 8
  call void @mbim_dissect_tlv_ie(ptr noundef %26, ptr noundef %27, ptr noundef %28, ptr noundef %10)
  br label %14, !llvm.loop !25

29:                                               ; preds = %14
  ret void
}