; Function Attrs: nounwind uwtable
define internal fastcc void @mbim_dissect_tlv_ie_list(ptr noundef %0, ptr noundef %1, ptr noundef %2, i32 noundef %3, i32 noundef %4, i32 noundef %5) unnamed_addr #0 {
  %7 = alloca i32, align 4
  store i32 %3, ptr %7, align 4
  %8 = sub i32 %3, %4
  %9 = icmp slt i32 %8, %5
  br i1 %9, label %.lr.ph, label %._crit_edge

.lr.ph:                                           ; preds = %6, %.lr.ph
  %10 = phi i32 [ %13, %.lr.ph ], [ %3, %6 ]
  %11 = load i32, ptr @ett_mbim_pair_list, align 4
  %12 = tail call ptr (ptr, ptr, i32, i32, i32, ptr, ptr, ...) @proto_tree_add_subtree_format(ptr noundef %2, ptr noundef %0, i32 noundef %10, i32 noundef 0, i32 noundef %11, ptr noundef null, ptr noundef nonnull @.str.2579) #10
  call fastcc void @mbim_dissect_tlv_ie(ptr noundef %0, ptr noundef %1, ptr noundef %12, ptr noundef %7)
  %13 = load i32, ptr %7, align 4
  %14 = sub i32 %13, %4
  %15 = icmp slt i32 %14, %5
  br i1 %15, label %.lr.ph, label %._crit_edge, !llvm.loop !10

._crit_edge:                                      ; preds = %.lr.ph, %6
  ret void
}